target datalayout = "e-m:e-p270:32:32-p271:32:32-p272:64:64-i64:64-i128:128-f80:128-n8:16:32:64-S128"
target triple = "x86_64-pc-linux-gnu"

%"struct.rocksdb::SeqnoToTimeMapping::SeqnoTimePair" = type { i64, i64 }

; Function Attrs: inlinehint mustprogress nounwind uwtable
define linkonce_odr noundef nonnull align 8 dereferenceable(8) ptr @_ZSt3maxImERKT_S2_S2_(ptr noundef nonnull align 8 dereferenceable(8) %0, ptr noundef nonnull align 8 dereferenceable(8) %1) #1 comdat {
  %3 = alloca ptr, align 8
  %4 = alloca ptr, align 8
  %5 = alloca ptr, align 8
  store ptr %0, ptr %4, align 8, !tbaa !44
  store ptr %1, ptr %5, align 8, !tbaa !44
  %6 = load ptr, ptr %4, align 8, !tbaa !44
  %7 = load i64, ptr %6, align 8, !tbaa !4
  %8 = load ptr, ptr %5, align 8, !tbaa !44
  %9 = load i64, ptr %8, align 8, !tbaa !4
  %10 = icmp ult i64 %7, %9
  br i1 %10, label %11, label %13

11:                                               ; preds = %2
  %12 = load ptr, ptr %5, align 8, !tbaa !44
  store ptr %12, ptr %3, align 8
  br label %15

13:                                               ; preds = %2
  %14 = load ptr, ptr %4, align 8, !tbaa !44
  store ptr %14, ptr %3, align 8
  br label %15

15:                                               ; preds = %13, %11
  %16 = load ptr, ptr %3, align 8
  ret ptr %16
}

; Function Attrs: inlinehint mustprogress nounwind uwtable
define linkonce_odr noundef nonnull align 8 dereferenceable(8) ptr @_ZSt3minImERKT_S2_S2_(ptr noundef nonnull align 8 dereferenceable(8) %0, ptr noundef nonnull align 8 dereferenceable(8) %1) #1 comdat {
  %3 = alloca ptr, align 8
  %4 = alloca ptr, align 8
  %5 = alloca ptr, align 8
  store ptr %0, ptr %4, align 8, !tbaa !44
  store ptr %1, ptr %5, align 8, !tbaa !44
  %6 = load ptr, ptr %5, align 8, !tbaa !44
  %7 = load i64, ptr %6, align 8, !tbaa !4
  %8 = load ptr, ptr %4, align 8, !tbaa !44
  %9 = load i64, ptr %8, align 8, !tbaa !4
  %10 = icmp ult i64 %7, %9
  br i1 %10, label %11, label %13

11:                                               ; preds = %2
  %12 = load ptr, ptr %5, align 8, !tbaa !44
  store ptr %12, ptr %3, align 8
  br label %15

13:                                               ; preds = %2
  %14 = load ptr, ptr %4, align 8, !tbaa !44
  store ptr %14, ptr %3, align 8
  br label %15

15:                                               ; preds = %13, %11
  %16 = load ptr, ptr %3, align 8
  ret ptr %16
}

; Function Attrs: mustprogress uwtable
define noundef zeroext i1 @_ZN7rocksdb18SeqnoToTimeMapping13SeqnoTimePair5MergeERKS1_(ptr noundef nonnull align 8 dereferenceable(16) %0, ptr noundef nonnull align 8 dereferenceable(16) %1) #5 align 2 {
  %3 = alloca i1, align 1
  %4 = alloca ptr, align 8
  %5 = alloca ptr, align 8
  store ptr %0, ptr %4, align 8, !tbaa !27
  store ptr %1, ptr %5, align 8, !tbaa !27
  %6 = load ptr, ptr %4, align 8
  %7 = getelementptr inbounds nuw %"struct.rocksdb::SeqnoToTimeMapping::SeqnoTimePair", ptr %6, i32 0, i32 0
  %8 = load i64, ptr %7, align 8, !tbaa !32
  %9 = load ptr, ptr %5, align 8, !tbaa !27
  %10 = getelementptr inbounds nuw %"struct.rocksdb::SeqnoToTimeMapping::SeqnoTimePair", ptr %9, i32 0, i32 0
  %11 = load i64, ptr %10, align 8, !tbaa !32
  %12 = icmp eq i64 %8, %11
  br i1 %12, label %13, label %20

13:                                               ; preds = %2
  %14 = getelementptr inbounds nuw %"struct.rocksdb::SeqnoToTimeMapping::SeqnoTimePair", ptr %6, i32 0, i32 1
  %15 = load ptr, ptr %5, align 8, !tbaa !27
  %16 = getelementptr inbounds nuw %"struct.rocksdb::SeqnoToTimeMapping::SeqnoTimePair", ptr %15, i32 0, i32 1
  %17 = call noundef nonnull align 8 dereferenceable(8) ptr @_ZSt3minImERKT_S2_S2_(ptr noundef nonnull align 8 dereferenceable(8) %14, ptr noundef nonnull align 8 dereferenceable(8) %16)
  %18 = load i64, ptr %17, align 8, !tbaa !4
  %19 = getelementptr inbounds nuw %"struct.rocksdb::SeqnoToTimeMapping::SeqnoTimePair", ptr %6, i32 0, i32 1
  store i64 %18, ptr %19, align 8, !tbaa !34
  store i1 true, ptr %3, align 1
  br label %44

20:                                               ; preds = %2
  %21 = getelementptr inbounds nuw %"struct.rocksdb::SeqnoToTimeMapping::SeqnoTimePair", ptr %6, i32 0, i32 1
  %22 = load i64, ptr %21, align 8, !tbaa !34
  %23 = load ptr, ptr %5, align 8, !tbaa !27
  %24 = getelementptr inbounds nuw %"struct.rocksdb::SeqnoToTimeMapping::SeqnoTimePair", ptr %23, i32 0, i32 1
  %25 = load i64, ptr %24, align 8, !tbaa !34
  %26 = icmp eq i64 %22, %25
  br i1 %26, label %27, label %34

27:                                               ; preds = %20
  %28 = getelementptr inbounds nuw %"struct.rocksdb::SeqnoToTimeMapping::SeqnoTimePair", ptr %6, i32 0, i32 0
  %29 = load ptr, ptr %5, align 8, !tbaa !27
  %30 = getelementptr inbounds nuw %"struct.rocksdb::SeqnoToTimeMapping::SeqnoTimePair", ptr %29, i32 0, i32 0
  %31 = call noundef nonnull align 8 dereferenceable(8) ptr @_ZSt3maxImERKT_S2_S2_(ptr noundef nonnull align 8 dereferenceable(8) %28, ptr noundef nonnull align 8 dereferenceable(8) %30)
  %32 = load i64, ptr %31, align 8, !tbaa !4
  %33 = getelementptr inbounds nuw %"struct.rocksdb::SeqnoToTimeMapping::SeqnoTimePair", ptr %6, i32 0, i32 0
  store i64 %32, ptr %33, align 8, !tbaa !32
  store i1 true, ptr %3, align 1
  br label %44

34:                                               ; preds = %20
  %35 = getelementptr inbounds nuw %"struct.rocksdb::SeqnoToTimeMapping::SeqnoTimePair", ptr %6, i32 0, i32 1
  %36 = load i64, ptr %35, align 8, !tbaa !34
  %37 = load ptr, ptr %5, align 8, !tbaa !27
  %38 = getelementptr inbounds nuw %"struct.rocksdb::SeqnoToTimeMapping::SeqnoTimePair", ptr %37, i32 0, i32 1
  %39 = load i64, ptr %38, align 8, !tbaa !34
  %40 = icmp ugt i64 %36, %39
  br i1 %40, label %41, label %43

41:                                               ; preds = %34
  %42 = load ptr, ptr %5, align 8, !tbaa !27
  call void @llvm.memcpy.p0.p0.i64(ptr align 8 %6, ptr align 8 %42, i64 16, i1 false), !tbaa.struct !70
  store i1 true, ptr %3, align 1
  br label %44

43:                                               ; preds = %34
  store i1 false, ptr %3, align 1
  br label %44

44:                                               ; preds = %43, %41, %27, %13
  %45 = load i1, ptr %3, align 1
  ret i1 %45
}