; Function Attrs: mustprogress nofree norecurse nosync nounwind willreturn memory(argmem: readwrite) uwtable
define noundef zeroext i1 @_ZN7rocksdb18SeqnoToTimeMapping13SeqnoTimePair5MergeERKS1_(ptr noundef nonnull align 8 captures(none) dereferenceable(16) %0, ptr noundef nonnull readonly align 8 captures(none) dereferenceable(16) %1) local_unnamed_addr #8 align 2 {
  %3 = load i64, ptr %0, align 8, !tbaa !56
  %4 = load i64, ptr %1, align 8, !tbaa !56
  %5 = icmp eq i64 %3, %4
  %6 = getelementptr inbounds nuw i8, ptr %0, i64 8
  br i1 %5, label %7, label %12

7:                                                ; preds = %2
  %8 = getelementptr inbounds nuw i8, ptr %1, i64 8
  %9 = load i64, ptr %8, align 8, !tbaa !113
  %10 = load i64, ptr %6, align 8, !tbaa !113
  %11 = tail call i64 @llvm.umin.i64(i64 %9, i64 %10)
  store i64 %11, ptr %6, align 8, !tbaa !33
  br label %22

12:                                               ; preds = %2
  %13 = load i64, ptr %6, align 8, !tbaa !33
  %14 = getelementptr inbounds nuw i8, ptr %1, i64 8
  %15 = load i64, ptr %14, align 8, !tbaa !33
  %16 = icmp eq i64 %13, %15
  br i1 %16, label %17, label %19

17:                                               ; preds = %12
  %18 = tail call i64 @llvm.umax.i64(i64 %3, i64 %4)
  store i64 %18, ptr %0, align 8, !tbaa !56
  br label %22

19:                                               ; preds = %12
  %20 = icmp ugt i64 %13, %15
  br i1 %20, label %21, label %22

21:                                               ; preds = %19
  tail call void @llvm.memcpy.p0.p0.i64(ptr noundef nonnull align 8 dereferenceable(16) %0, ptr noundef nonnull align 8 dereferenceable(16) %1, i64 16, i1 false), !tbaa.struct !187
  br label %22

22:                                               ; preds = %19, %21, %17, %7
  %.0 = phi i1 [ true, %7 ], [ true, %17 ], [ true, %21 ], [ false, %19 ]
  ret i1 %.0
}